; Function Attrs: mustprogress uwtable
define hidden void @_ZN3opt18maxsmt_solver_base10enable_slsEb(ptr noundef nonnull readonly align 8 captures(none) dereferenceable(160) %0, i1 noundef zeroext %1) local_unnamed_addr #4 align 2 {
  %3 = getelementptr inbounds nuw i8, ptr %0, i64 16
  %4 = load ptr, ptr %3, align 8, !tbaa !66
  %5 = load ptr, ptr %4, align 8, !tbaa !3
  %6 = getelementptr inbounds nuw i8, ptr %5, i64 56
  %7 = load ptr, ptr %6, align 8
  tail call void %7(ptr noundef nonnull align 8 dereferenceable(8) %4, i1 noundef zeroext %1)
  ret void
}